; Function Attrs: nounwind uwtable
define hidden range(i32 -1, 1) i32 @event_changelist_del_(ptr noundef captures(none) %0, i32 noundef %1, i16 noundef signext %2, i16 noundef signext %3, ptr noundef captures(none) %4) local_unnamed_addr #1 {
  %6 = getelementptr inbounds nuw i8, ptr %0, i64 16
  %7 = trunc i16 %3 to i8
  %8 = and i8 %7, 32
  %9 = or disjoint i8 %8, 2
  %10 = load i32, ptr %4, align 4
  %11 = icmp eq i32 %10, 0
  br i1 %11, label %12, label %event_changelist_get_or_construct.exit

12:                                               ; preds = %5
  %13 = getelementptr inbounds nuw i8, ptr %0, i64 24
  %14 = load i32, ptr %13, align 8
  %15 = getelementptr inbounds nuw i8, ptr %0, i64 28
  %16 = load i32, ptr %15, align 4
  %17 = icmp eq i32 %14, %16
  %.pre26.i = load ptr, ptr %6, align 8
  br i1 %17, label %18, label %event_changelist_get_or_construct.exit.thread32

18:                                               ; preds = %12
  %19 = icmp slt i32 %14, 64
  %20 = shl nuw nsw i32 %14, 1
  %.09.i.i = select i1 %19, i32 64, i32 %20
  %21 = zext nneg i32 %.09.i.i to i64
  %22 = mul nuw nsw i64 %21, 12
  %23 = tail call ptr @event_mm_realloc_(ptr noundef %.pre26.i, i64 noundef %22) #7
  %24 = icmp eq ptr %23, null
  br i1 %24, label %event_changelist_get_or_construct.exit.thread, label %event_changelist_grow.exit.i, !prof !6

event_changelist_grow.exit.i:                     ; preds = %18
  store ptr %23, ptr %6, align 8
  store i32 %.09.i.i, ptr %15, align 4
  %.pre.i = load i32, ptr %13, align 8
  br label %event_changelist_get_or_construct.exit.thread32

event_changelist_get_or_construct.exit.thread32:  ; preds = %12, %event_changelist_grow.exit.i
  %25 = phi ptr [ %.pre26.i, %12 ], [ %23, %event_changelist_grow.exit.i ]
  %26 = phi i32 [ %14, %12 ], [ %.pre.i, %event_changelist_grow.exit.i ]
  %27 = add nsw i32 %26, 1
  store i32 %27, ptr %13, align 8
  %28 = sext i32 %26 to i64
  %29 = getelementptr inbounds %struct.event_change, ptr %25, i64 %28
  store i32 %27, ptr %4, align 4
  %30 = getelementptr inbounds nuw i8, ptr %29, i64 4
  store i64 0, ptr %30, align 4
  store i32 %1, ptr %29, align 4
  store i16 %2, ptr %30, align 4
  br label %35

event_changelist_get_or_construct.exit:           ; preds = %5
  %31 = load ptr, ptr %6, align 8
  %32 = sext i32 %10 to i64
  %33 = getelementptr %struct.event_change, ptr %31, i64 %32
  %34 = getelementptr i8, ptr %33, i64 -12
  %.not = icmp eq ptr %34, null
  br i1 %.not, label %event_changelist_get_or_construct.exit.thread, label %35

35:                                               ; preds = %event_changelist_get_or_construct.exit.thread32, %event_changelist_get_or_construct.exit
  %.1.i35 = phi ptr [ %29, %event_changelist_get_or_construct.exit.thread32 ], [ %34, %event_changelist_get_or_construct.exit ]
  %36 = and i16 %3, 10
  %.not24 = icmp eq i16 %36, 0
  br i1 %.not24, label %41, label %.sink.split

.sink.split:                                      ; preds = %35
  %37 = getelementptr inbounds nuw i8, ptr %.1.i35, i64 4
  %38 = load i16, ptr %37, align 4
  %39 = and i16 %38, 10
  %.not25 = icmp eq i16 %39, 0
  %40 = getelementptr inbounds nuw i8, ptr %.1.i35, i64 6
  %. = select i1 %.not25, i8 0, i8 %9
  store i8 %., ptr %40, align 2
  br label %41

41:                                               ; preds = %.sink.split, %35
  %42 = and i16 %3, 4
  %.not26 = icmp eq i16 %42, 0
  br i1 %.not26, label %47, label %.sink.split36

.sink.split36:                                    ; preds = %41
  %43 = getelementptr inbounds nuw i8, ptr %.1.i35, i64 4
  %44 = load i16, ptr %43, align 4
  %45 = and i16 %44, 4
  %.not27 = icmp eq i16 %45, 0
  %46 = getelementptr inbounds nuw i8, ptr %.1.i35, i64 7
  %.39 = select i1 %.not27, i8 0, i8 %9
  store i8 %.39, ptr %46, align 1
  br label %47

47:                                               ; preds = %.sink.split36, %41
  %48 = and i16 %3, 128
  %.not28 = icmp eq i16 %48, 0
  br i1 %.not28, label %event_changelist_get_or_construct.exit.thread, label %event_changelist_get_or_construct.exit.thread.sink.split

event_changelist_get_or_construct.exit.thread.sink.split: ; preds = %47
  %49 = getelementptr inbounds nuw i8, ptr %.1.i35, i64 4
  %50 = load i16, ptr %49, align 4
  %51 = and i16 %50, 128
  %.not29 = icmp eq i16 %51, 0
  %52 = getelementptr inbounds nuw i8, ptr %.1.i35, i64 8
  %.40 = select i1 %.not29, i8 0, i8 %9
  store i8 %.40, ptr %52, align 4
  br label %event_changelist_get_or_construct.exit.thread

event_changelist_get_or_construct.exit.thread:    ; preds = %event_changelist_get_or_construct.exit.thread.sink.split, %18, %47, %event_changelist_get_or_construct.exit
  %.0 = phi i32 [ -1, %event_changelist_get_or_construct.exit ], [ 0, %47 ], [ -1, %18 ], [ 0, %event_changelist_get_or_construct.exit.thread.sink.split ]
  ret i32 %.0
}